target datalayout = "e-m:e-p270:32:32-p271:32:32-p272:64:64-i64:64-i128:128-f80:128-n8:16:32:64-S128"
target triple = "x86_64-pc-linux-gnu"

%struct.pointf_s = type { double, double }
%struct.Agobj_s = type { %struct.Agtag_s, ptr }
%struct.Agtag_s = type { i32, i64 }
%struct.Agrec_s = type { ptr, ptr }
%struct.boxf = type { %struct.pointf_s, %struct.pointf_s }
%struct.Agraphinfo_t = type { %struct.Agrec_s, ptr, ptr, %struct.boxf, [4 x %struct.pointf_s], i8, i8, i8, i8, i32, double, double, i16, ptr, ptr, ptr, ptr, i32, ptr, ptr, ptr, ptr, i16, i16, i32, ptr, ptr, ptr, ptr, ptr, i32, ptr, ptr, %struct.nlist_t, ptr, ptr, i32, i32, i8, i8, i32, i32, i32, ptr, ptr, ptr, ptr, i8, i8, i8, i8, i8 }
%struct.nlist_t = type { ptr, i64 }
%struct.textlabel_t = type { ptr, ptr, ptr, i32, double, %struct.pointf_s, %struct.pointf_s, %struct.pointf_s, %union.anon.0, i8, i8, i8 }
%union.anon.0 = type { %struct.anon }
%struct.anon = type { ptr, i64 }

; Function Attrs: nounwind uwtable
define internal void @translateG(ptr noundef %0, double %1, double %2) #0 {
  %4 = alloca %struct.pointf_s, align 8
  %5 = alloca ptr, align 8
  %6 = alloca i32, align 4
  %7 = getelementptr inbounds nuw { double, double }, ptr %4, i32 0, i32 0
  store double %1, ptr %7, align 8
  %8 = getelementptr inbounds nuw { double, double }, ptr %4, i32 0, i32 1
  store double %2, ptr %8, align 8
  store ptr %0, ptr %5, align 8, !tbaa !123
  call void @llvm.lifetime.start.p0(i64 4, ptr %6) #11
  %9 = getelementptr inbounds nuw %struct.pointf_s, ptr %4, i32 0, i32 0
  %10 = load double, ptr %9, align 8, !tbaa !76
  %11 = load ptr, ptr %5, align 8, !tbaa !123
  %12 = getelementptr inbounds nuw %struct.Agobj_s, ptr %11, i32 0, i32 1
  %13 = load ptr, ptr %12, align 8, !tbaa !21
  %14 = getelementptr inbounds nuw %struct.Agraphinfo_t, ptr %13, i32 0, i32 3
  %15 = getelementptr inbounds nuw %struct.boxf, ptr %14, i32 0, i32 1
  %16 = getelementptr inbounds nuw %struct.pointf_s, ptr %15, i32 0, i32 0
  %17 = load double, ptr %16, align 8, !tbaa !171
  %18 = fsub double %17, %10
  store double %18, ptr %16, align 8, !tbaa !171
  %19 = getelementptr inbounds nuw %struct.pointf_s, ptr %4, i32 0, i32 1
  %20 = load double, ptr %19, align 8, !tbaa !78
  %21 = load ptr, ptr %5, align 8, !tbaa !123
  %22 = getelementptr inbounds nuw %struct.Agobj_s, ptr %21, i32 0, i32 1
  %23 = load ptr, ptr %22, align 8, !tbaa !21
  %24 = getelementptr inbounds nuw %struct.Agraphinfo_t, ptr %23, i32 0, i32 3
  %25 = getelementptr inbounds nuw %struct.boxf, ptr %24, i32 0, i32 1
  %26 = getelementptr inbounds nuw %struct.pointf_s, ptr %25, i32 0, i32 1
  %27 = load double, ptr %26, align 8, !tbaa !172
  %28 = fsub double %27, %20
  store double %28, ptr %26, align 8, !tbaa !172
  %29 = getelementptr inbounds nuw %struct.pointf_s, ptr %4, i32 0, i32 0
  %30 = load double, ptr %29, align 8, !tbaa !76
  %31 = load ptr, ptr %5, align 8, !tbaa !123
  %32 = getelementptr inbounds nuw %struct.Agobj_s, ptr %31, i32 0, i32 1
  %33 = load ptr, ptr %32, align 8, !tbaa !21
  %34 = getelementptr inbounds nuw %struct.Agraphinfo_t, ptr %33, i32 0, i32 3
  %35 = getelementptr inbounds nuw %struct.boxf, ptr %34, i32 0, i32 0
  %36 = getelementptr inbounds nuw %struct.pointf_s, ptr %35, i32 0, i32 0
  %37 = load double, ptr %36, align 8, !tbaa !165
  %38 = fsub double %37, %30
  store double %38, ptr %36, align 8, !tbaa !165
  %39 = getelementptr inbounds nuw %struct.pointf_s, ptr %4, i32 0, i32 1
  %40 = load double, ptr %39, align 8, !tbaa !78
  %41 = load ptr, ptr %5, align 8, !tbaa !123
  %42 = getelementptr inbounds nuw %struct.Agobj_s, ptr %41, i32 0, i32 1
  %43 = load ptr, ptr %42, align 8, !tbaa !21
  %44 = getelementptr inbounds nuw %struct.Agraphinfo_t, ptr %43, i32 0, i32 3
  %45 = getelementptr inbounds nuw %struct.boxf, ptr %44, i32 0, i32 0
  %46 = getelementptr inbounds nuw %struct.pointf_s, ptr %45, i32 0, i32 1
  %47 = load double, ptr %46, align 8, !tbaa !166
  %48 = fsub double %47, %40
  store double %48, ptr %46, align 8, !tbaa !166
  %49 = load ptr, ptr %5, align 8, !tbaa !123
  %50 = getelementptr inbounds nuw %struct.Agobj_s, ptr %49, i32 0, i32 1
  %51 = load ptr, ptr %50, align 8, !tbaa !21
  %52 = getelementptr inbounds nuw %struct.Agraphinfo_t, ptr %51, i32 0, i32 2
  %53 = load ptr, ptr %52, align 8, !tbaa !200
  %54 = icmp ne ptr %53, null
  br i1 %54, label %55, label %87

55:                                               ; preds = %3
  %56 = load ptr, ptr %5, align 8, !tbaa !123
  %57 = getelementptr inbounds nuw %struct.Agobj_s, ptr %56, i32 0, i32 1
  %58 = load ptr, ptr %57, align 8, !tbaa !21
  %59 = getelementptr inbounds nuw %struct.Agraphinfo_t, ptr %58, i32 0, i32 2
  %60 = load ptr, ptr %59, align 8, !tbaa !200
  %61 = getelementptr inbounds nuw %struct.textlabel_t, ptr %60, i32 0, i32 10
  %62 = load i8, ptr %61, align 1, !tbaa !174, !range !48, !noundef !49
  %63 = trunc i8 %62 to i1
  br i1 %63, label %64, label %87

64:                                               ; preds = %55
  %65 = getelementptr inbounds nuw %struct.pointf_s, ptr %4, i32 0, i32 0
  %66 = load double, ptr %65, align 8, !tbaa !76
  %67 = load ptr, ptr %5, align 8, !tbaa !123
  %68 = getelementptr inbounds nuw %struct.Agobj_s, ptr %67, i32 0, i32 1
  %69 = load ptr, ptr %68, align 8, !tbaa !21
  %70 = getelementptr inbounds nuw %struct.Agraphinfo_t, ptr %69, i32 0, i32 2
  %71 = load ptr, ptr %70, align 8, !tbaa !200
  %72 = getelementptr inbounds nuw %struct.textlabel_t, ptr %71, i32 0, i32 7
  %73 = getelementptr inbounds nuw %struct.pointf_s, ptr %72, i32 0, i32 0
  %74 = load double, ptr %73, align 8, !tbaa !176
  %75 = fsub double %74, %66
  store double %75, ptr %73, align 8, !tbaa !176
  %76 = getelementptr inbounds nuw %struct.pointf_s, ptr %4, i32 0, i32 1
  %77 = load double, ptr %76, align 8, !tbaa !78
  %78 = load ptr, ptr %5, align 8, !tbaa !123
  %79 = getelementptr inbounds nuw %struct.Agobj_s, ptr %78, i32 0, i32 1
  %80 = load ptr, ptr %79, align 8, !tbaa !21
  %81 = getelementptr inbounds nuw %struct.Agraphinfo_t, ptr %80, i32 0, i32 2
  %82 = load ptr, ptr %81, align 8, !tbaa !200
  %83 = getelementptr inbounds nuw %struct.textlabel_t, ptr %82, i32 0, i32 7
  %84 = getelementptr inbounds nuw %struct.pointf_s, ptr %83, i32 0, i32 1
  %85 = load double, ptr %84, align 8, !tbaa !177
  %86 = fsub double %85, %77
  store double %86, ptr %84, align 8, !tbaa !177
  br label %87

87:                                               ; preds = %64, %55, %3
  store i32 1, ptr %6, align 4, !tbaa !45
  br label %88

88:                                               ; preds = %110, %87
  %89 = load i32, ptr %6, align 4, !tbaa !45
  %90 = load ptr, ptr %5, align 8, !tbaa !123
  %91 = getelementptr inbounds nuw %struct.Agobj_s, ptr %90, i32 0, i32 1
  %92 = load ptr, ptr %91, align 8, !tbaa !21
  %93 = getelementptr inbounds nuw %struct.Agraphinfo_t, ptr %92, i32 0, i32 24
  %94 = load i32, ptr %93, align 4, !tbaa !168
  %95 = icmp sle i32 %89, %94
  br i1 %95, label %96, label %113

96:                                               ; preds = %88
  %97 = load ptr, ptr %5, align 8, !tbaa !123
  %98 = getelementptr inbounds nuw %struct.Agobj_s, ptr %97, i32 0, i32 1
  %99 = load ptr, ptr %98, align 8, !tbaa !21
  %100 = getelementptr inbounds nuw %struct.Agraphinfo_t, ptr %99, i32 0, i32 25
  %101 = load ptr, ptr %100, align 8, !tbaa !169
  %102 = load i32, ptr %6, align 4, !tbaa !45
  %103 = sext i32 %102 to i64
  %104 = getelementptr inbounds ptr, ptr %101, i64 %103
  %105 = load ptr, ptr %104, align 8, !tbaa !123
  %106 = getelementptr inbounds nuw { double, double }, ptr %4, i32 0, i32 0
  %107 = load double, ptr %106, align 8
  %108 = getelementptr inbounds nuw { double, double }, ptr %4, i32 0, i32 1
  %109 = load double, ptr %108, align 8
  call void @translateG(ptr noundef %105, double %107, double %109)
  br label %110

110:                                              ; preds = %96
  %111 = load i32, ptr %6, align 4, !tbaa !45
  %112 = add nsw i32 %111, 1
  store i32 %112, ptr %6, align 4, !tbaa !45
  br label %88, !llvm.loop !201

113:                                              ; preds = %88
  call void @llvm.lifetime.end.p0(i64 4, ptr %6) #11
  ret void
}